; Function Attrs: nounwind uwtable
define ptr @Hop_CreateOr(ptr noundef %0, i32 noundef %1) local_unnamed_addr #0 {
  %3 = getelementptr i8, ptr %0, i64 24
  %.val = load ptr, ptr %3, align 8, !tbaa !20
  %.08.in.in9 = ptrtoint ptr %.val to i64
  %.08.in10 = xor i64 %.08.in.in9, 1
  %.0811 = inttoptr i64 %.08.in10 to ptr
  %4 = icmp sgt i32 %1, 0
  br i1 %4, label %.lr.ph, label %._crit_edge

.lr.ph:                                           ; preds = %2
  %5 = getelementptr i8, ptr %0, i64 80
  %6 = getelementptr inbounds nuw i8, ptr %0, i64 64
  %7 = getelementptr inbounds nuw i8, ptr %0, i64 48
  %8 = getelementptr inbounds nuw i8, ptr %0, i64 56
  %9 = getelementptr inbounds nuw i8, ptr %0, i64 32
  %wide.trip.count = zext nneg i32 %1 to i64
  br label %10

10:                                               ; preds = %.lr.ph, %Hop_Or.exit
  %indvars.iv = phi i64 [ 0, %.lr.ph ], [ %indvars.iv.next, %Hop_Or.exit ]
  %.0815 = phi ptr [ %.0811, %.lr.ph ], [ %.08, %Hop_Or.exit ]
  %.08.in.in14 = phi i64 [ %.08.in.in9, %.lr.ph ], [ %.08.in.in, %Hop_Or.exit ]
  %.08.in.in.in12 = phi ptr [ %.val, %.lr.ph ], [ %.0.i.i, %Hop_Or.exit ]
  %.val.i = load i32, ptr %5, align 8, !tbaa !3
  %11 = sext i32 %.val.i to i64
  %.not8.i = icmp slt i64 %indvars.iv, %11
  br i1 %.not8.i, label %Hop_IthVar.exit, label %.lr.ph.i

.lr.ph.i:                                         ; preds = %10, %.lr.ph.i
  %.09.i = phi i32 [ %13, %.lr.ph.i ], [ %.val.i, %10 ]
  %12 = tail call ptr @Hop_ObjCreatePi(ptr noundef %0) #2
  %13 = add i32 %.09.i, 1
  %14 = zext i32 %.09.i to i64
  %exitcond.not.i = icmp eq i64 %indvars.iv, %14
  br i1 %exitcond.not.i, label %Hop_IthVar.exit, label %.lr.ph.i, !llvm.loop !7

Hop_IthVar.exit:                                  ; preds = %.lr.ph.i, %10
  %.val7.i = load ptr, ptr %0, align 8, !tbaa !9
  %15 = getelementptr i8, ptr %.val7.i, i64 8
  %.val7.val.i = load ptr, ptr %15, align 8, !tbaa !17
  %16 = getelementptr inbounds nuw ptr, ptr %.val7.val.i, i64 %indvars.iv
  %17 = load ptr, ptr %16, align 8, !tbaa !19
  %18 = ptrtoint ptr %17 to i64
  %19 = xor i64 %18, 1
  %20 = inttoptr i64 %19 to ptr
  %21 = icmp eq ptr %17, %.0815
  br i1 %21, label %Hop_Or.exit, label %22

22:                                               ; preds = %Hop_IthVar.exit
  %23 = icmp eq ptr %17, %.08.in.in.in12
  br i1 %23, label %24, label %29

24:                                               ; preds = %22
  %25 = load ptr, ptr %3, align 8, !tbaa !20
  %26 = ptrtoint ptr %25 to i64
  %27 = xor i64 %26, 1
  %28 = inttoptr i64 %27 to ptr
  br label %Hop_Or.exit

29:                                               ; preds = %22
  %30 = and i64 %.08.in.in14, -2
  %31 = inttoptr i64 %30 to ptr
  %32 = load ptr, ptr %3, align 8, !tbaa !20
  %33 = icmp eq ptr %32, %31
  br i1 %33, label %34, label %39

34:                                               ; preds = %29
  %35 = icmp eq i64 %30, %.08.in.in14
  br i1 %35, label %Hop_Or.exit, label %36

36:                                               ; preds = %34
  %37 = or i64 %.08.in.in14, 1
  %38 = inttoptr i64 %37 to ptr
  br label %Hop_Or.exit

39:                                               ; preds = %29
  %40 = and i64 %18, -2
  %41 = inttoptr i64 %40 to ptr
  %42 = icmp eq ptr %32, %41
  br i1 %42, label %43, label %49

43:                                               ; preds = %39
  %44 = icmp eq ptr %32, %20
  br i1 %44, label %Hop_Or.exit, label %45

45:                                               ; preds = %43
  %46 = ptrtoint ptr %32 to i64
  %47 = xor i64 %46, 1
  %48 = inttoptr i64 %47 to ptr
  br label %Hop_Or.exit

49:                                               ; preds = %39
  %50 = load i32, ptr %6, align 8
  %51 = and i32 %50, -8
  %52 = or disjoint i32 %51, 4
  store i32 %52, ptr %6, align 8
  %53 = getelementptr inbounds nuw i8, ptr %31, i64 36
  %54 = load i32, ptr %53, align 4, !tbaa !21
  %55 = getelementptr inbounds nuw i8, ptr %41, i64 36
  %56 = load i32, ptr %55, align 4, !tbaa !21
  %57 = icmp slt i32 %54, %56
  %spec.select.i.i.i = select i1 %57, ptr %.08.in.in.in12, ptr %20
  %spec.select14.i.i.i = select i1 %57, ptr %20, ptr %.08.in.in.in12
  store ptr %spec.select.i.i.i, ptr %7, align 8, !tbaa !22
  store ptr %spec.select14.i.i.i, ptr %8, align 8, !tbaa !23
  %58 = tail call ptr @Hop_TableLookup(ptr noundef nonnull %0, ptr noundef nonnull %9) #2
  %.not.i.i = icmp eq ptr %58, null
  br i1 %.not.i.i, label %59, label %Hop_Or.exit

59:                                               ; preds = %49
  %60 = tail call ptr @Hop_ObjCreate(ptr noundef nonnull %0, ptr noundef nonnull %9) #2
  br label %Hop_Or.exit

Hop_Or.exit:                                      ; preds = %Hop_IthVar.exit, %24, %34, %36, %43, %45, %49, %59
  %.0.i.i = phi ptr [ %28, %24 ], [ %60, %59 ], [ %.08.in.in.in12, %Hop_IthVar.exit ], [ %38, %36 ], [ %20, %34 ], [ %48, %45 ], [ %.08.in.in.in12, %43 ], [ %58, %49 ]
  %indvars.iv.next = add nuw nsw i64 %indvars.iv, 1
  %.08.in.in = ptrtoint ptr %.0.i.i to i64
  %.08.in = xor i64 %.08.in.in, 1
  %.08 = inttoptr i64 %.08.in to ptr
  %exitcond.not = icmp eq i64 %indvars.iv.next, %wide.trip.count
  br i1 %exitcond.not, label %._crit_edge, label %10, !llvm.loop !28

._crit_edge:                                      ; preds = %Hop_Or.exit, %2
  %.08.lcssa = phi ptr [ %.0811, %2 ], [ %.08, %Hop_Or.exit ]
  ret ptr %.08.lcssa
}